target datalayout = "e-m:e-p270:32:32-p271:32:32-p272:64:64-i64:64-i128:128-f80:128-n8:16:32:64-S128"
target triple = "x86_64-pc-linux-gnu"

%struct.sigaction = type { %union.anon.7, %struct.__sigset_t, i32, ptr }
%union.anon.7 = type { ptr }
%struct.__sigset_t = type { [16 x i64] }

@_ZZN5cmsys31SystemInformationImplementation20SetStackTraceOnErrorEiE11saOrigValid = internal global i32 0, align 4
@_ZZN5cmsys31SystemInformationImplementation20SetStackTraceOnErrorEiE10saABRTOrig = internal global %struct.sigaction zeroinitializer, align 8
@_ZZN5cmsys31SystemInformationImplementation20SetStackTraceOnErrorEiE10saSEGVOrig = internal global %struct.sigaction zeroinitializer, align 8
@_ZZN5cmsys31SystemInformationImplementation20SetStackTraceOnErrorEiE10saTERMOrig = internal global %struct.sigaction zeroinitializer, align 8
@_ZZN5cmsys31SystemInformationImplementation20SetStackTraceOnErrorEiE9saINTOrig = internal global %struct.sigaction zeroinitializer, align 8
@_ZZN5cmsys31SystemInformationImplementation20SetStackTraceOnErrorEiE9saILLOrig = internal global %struct.sigaction zeroinitializer, align 8
@_ZZN5cmsys31SystemInformationImplementation20SetStackTraceOnErrorEiE9saBUSOrig = internal global %struct.sigaction zeroinitializer, align 8
@_ZZN5cmsys31SystemInformationImplementation20SetStackTraceOnErrorEiE9saFPEOrig = internal global %struct.sigaction zeroinitializer, align 8

; Function Attrs: mustprogress nounwind uwtable
define dso_local void @_ZN5cmsys31SystemInformationImplementation20SetStackTraceOnErrorEi(i32 noundef %0) #7 align 2 {
  %2 = alloca i32, align 4
  %3 = alloca %struct.sigaction, align 8
  store i32 %0, ptr %2, align 4, !tbaa !70
  %4 = load i32, ptr %2, align 4, !tbaa !70
  %5 = icmp ne i32 %4, 0
  br i1 %5, label %6, label %31

6:                                                ; preds = %1
  %7 = load i32, ptr @_ZZN5cmsys31SystemInformationImplementation20SetStackTraceOnErrorEiE11saOrigValid, align 4, !tbaa !70
  %8 = icmp ne i32 %7, 0
  br i1 %8, label %31, label %9

9:                                                ; preds = %6
  %10 = call i32 @sigaction(i32 noundef 6, ptr noundef null, ptr noundef @_ZZN5cmsys31SystemInformationImplementation20SetStackTraceOnErrorEiE10saABRTOrig) #3
  %11 = call i32 @sigaction(i32 noundef 11, ptr noundef null, ptr noundef @_ZZN5cmsys31SystemInformationImplementation20SetStackTraceOnErrorEiE10saSEGVOrig) #3
  %12 = call i32 @sigaction(i32 noundef 15, ptr noundef null, ptr noundef @_ZZN5cmsys31SystemInformationImplementation20SetStackTraceOnErrorEiE10saTERMOrig) #3
  %13 = call i32 @sigaction(i32 noundef 2, ptr noundef null, ptr noundef @_ZZN5cmsys31SystemInformationImplementation20SetStackTraceOnErrorEiE9saINTOrig) #3
  %14 = call i32 @sigaction(i32 noundef 4, ptr noundef null, ptr noundef @_ZZN5cmsys31SystemInformationImplementation20SetStackTraceOnErrorEiE9saILLOrig) #3
  %15 = call i32 @sigaction(i32 noundef 7, ptr noundef null, ptr noundef @_ZZN5cmsys31SystemInformationImplementation20SetStackTraceOnErrorEiE9saBUSOrig) #3
  %16 = call i32 @sigaction(i32 noundef 8, ptr noundef null, ptr noundef @_ZZN5cmsys31SystemInformationImplementation20SetStackTraceOnErrorEiE9saFPEOrig) #3
  store i32 1, ptr @_ZZN5cmsys31SystemInformationImplementation20SetStackTraceOnErrorEiE11saOrigValid, align 4, !tbaa !70
  call void @llvm.lifetime.start.p0(i64 152, ptr %3) #3
  %17 = getelementptr inbounds nuw %struct.sigaction, ptr %3, i32 0, i32 0
  store ptr @_ZN5cmsys12_GLOBAL__N_123StacktraceSignalHandlerEiP9siginfo_tPv, ptr %17, align 8, !tbaa !100
  %18 = getelementptr inbounds nuw %struct.sigaction, ptr %3, i32 0, i32 2
  store i32 -2147483644, ptr %18, align 8, !tbaa !101
  %19 = getelementptr inbounds nuw %struct.sigaction, ptr %3, i32 0, i32 2
  %20 = load i32, ptr %19, align 8, !tbaa !101
  %21 = or i32 %20, 268435456
  store i32 %21, ptr %19, align 8, !tbaa !101
  %22 = getelementptr inbounds nuw %struct.sigaction, ptr %3, i32 0, i32 1
  %23 = call i32 @sigemptyset(ptr noundef %22) #3
  %24 = call i32 @sigaction(i32 noundef 6, ptr noundef %3, ptr noundef null) #3
  %25 = call i32 @sigaction(i32 noundef 11, ptr noundef %3, ptr noundef null) #3
  %26 = call i32 @sigaction(i32 noundef 15, ptr noundef %3, ptr noundef null) #3
  %27 = call i32 @sigaction(i32 noundef 2, ptr noundef %3, ptr noundef null) #3
  %28 = call i32 @sigaction(i32 noundef 4, ptr noundef %3, ptr noundef null) #3
  %29 = call i32 @sigaction(i32 noundef 7, ptr noundef %3, ptr noundef null) #3
  %30 = call i32 @sigaction(i32 noundef 8, ptr noundef %3, ptr noundef null) #3
  call void @llvm.lifetime.end.p0(i64 152, ptr %3) #3
  br label %46

31:                                               ; preds = %6, %1
  %32 = load i32, ptr %2, align 4, !tbaa !70
  %33 = icmp ne i32 %32, 0
  br i1 %33, label %45, label %34

34:                                               ; preds = %31
  %35 = load i32, ptr @_ZZN5cmsys31SystemInformationImplementation20SetStackTraceOnErrorEiE11saOrigValid, align 4, !tbaa !70
  %36 = icmp ne i32 %35, 0
  br i1 %36, label %37, label %45

37:                                               ; preds = %34
  %38 = call i32 @sigaction(i32 noundef 6, ptr noundef @_ZZN5cmsys31SystemInformationImplementation20SetStackTraceOnErrorEiE10saABRTOrig, ptr noundef null) #3
  %39 = call i32 @sigaction(i32 noundef 11, ptr noundef @_ZZN5cmsys31SystemInformationImplementation20SetStackTraceOnErrorEiE10saSEGVOrig, ptr noundef null) #3
  %40 = call i32 @sigaction(i32 noundef 15, ptr noundef @_ZZN5cmsys31SystemInformationImplementation20SetStackTraceOnErrorEiE10saTERMOrig, ptr noundef null) #3
  %41 = call i32 @sigaction(i32 noundef 2, ptr noundef @_ZZN5cmsys31SystemInformationImplementation20SetStackTraceOnErrorEiE9saINTOrig, ptr noundef null) #3
  %42 = call i32 @sigaction(i32 noundef 4, ptr noundef @_ZZN5cmsys31SystemInformationImplementation20SetStackTraceOnErrorEiE9saILLOrig, ptr noundef null) #3
  %43 = call i32 @sigaction(i32 noundef 7, ptr noundef @_ZZN5cmsys31SystemInformationImplementation20SetStackTraceOnErrorEiE9saBUSOrig, ptr noundef null) #3
  %44 = call i32 @sigaction(i32 noundef 8, ptr noundef @_ZZN5cmsys31SystemInformationImplementation20SetStackTraceOnErrorEiE9saFPEOrig, ptr noundef null) #3
  store i32 0, ptr @_ZZN5cmsys31SystemInformationImplementation20SetStackTraceOnErrorEiE11saOrigValid, align 4, !tbaa !70
  br label %45

45:                                               ; preds = %37, %34, %31
  br label %46

46:                                               ; preds = %45, %9
  ret void
}