; Function Attrs: mustprogress nounwind uwtable
define dso_local void @_ZN5cmsys31SystemInformationImplementation20SetStackTraceOnErrorEi(i32 noundef %0) local_unnamed_addr #6 align 2 {
  %2 = alloca %struct.sigaction, align 8
  %3 = icmp eq i32 %0, 0
  %.b = load i1, ptr @_ZZN5cmsys31SystemInformationImplementation20SetStackTraceOnErrorEiE11saOrigValid, align 4
  %or.cond = select i1 %3, i1 true, i1 %.b
  br i1 %or.cond, label %22, label %4

4:                                                ; preds = %1
  %5 = tail call i32 @sigaction(i32 noundef 6, ptr noundef null, ptr noundef nonnull @_ZZN5cmsys31SystemInformationImplementation20SetStackTraceOnErrorEiE10saABRTOrig) #34
  %6 = tail call i32 @sigaction(i32 noundef 11, ptr noundef null, ptr noundef nonnull @_ZZN5cmsys31SystemInformationImplementation20SetStackTraceOnErrorEiE10saSEGVOrig) #34
  %7 = tail call i32 @sigaction(i32 noundef 15, ptr noundef null, ptr noundef nonnull @_ZZN5cmsys31SystemInformationImplementation20SetStackTraceOnErrorEiE10saTERMOrig) #34
  %8 = tail call i32 @sigaction(i32 noundef 2, ptr noundef null, ptr noundef nonnull @_ZZN5cmsys31SystemInformationImplementation20SetStackTraceOnErrorEiE9saINTOrig) #34
  %9 = tail call i32 @sigaction(i32 noundef 4, ptr noundef null, ptr noundef nonnull @_ZZN5cmsys31SystemInformationImplementation20SetStackTraceOnErrorEiE9saILLOrig) #34
  %10 = tail call i32 @sigaction(i32 noundef 7, ptr noundef null, ptr noundef nonnull @_ZZN5cmsys31SystemInformationImplementation20SetStackTraceOnErrorEiE9saBUSOrig) #34
  %11 = tail call i32 @sigaction(i32 noundef 8, ptr noundef null, ptr noundef nonnull @_ZZN5cmsys31SystemInformationImplementation20SetStackTraceOnErrorEiE9saFPEOrig) #34
  store i1 true, ptr @_ZZN5cmsys31SystemInformationImplementation20SetStackTraceOnErrorEiE11saOrigValid, align 4
  call void @llvm.lifetime.start.p0(i64 152, ptr nonnull %2) #34
  store ptr @_ZN5cmsys12_GLOBAL__N_123StacktraceSignalHandlerEiP9siginfo_tPv, ptr %2, align 8, !tbaa !16
  %12 = getelementptr inbounds nuw i8, ptr %2, i64 136
  store i32 -1879048188, ptr %12, align 8, !tbaa !143
  %13 = getelementptr inbounds nuw i8, ptr %2, i64 8
  %14 = call i32 @sigemptyset(ptr noundef nonnull %13) #34
  %15 = call i32 @sigaction(i32 noundef 6, ptr noundef nonnull %2, ptr noundef null) #34
  %16 = call i32 @sigaction(i32 noundef 11, ptr noundef nonnull %2, ptr noundef null) #34
  %17 = call i32 @sigaction(i32 noundef 15, ptr noundef nonnull %2, ptr noundef null) #34
  %18 = call i32 @sigaction(i32 noundef 2, ptr noundef nonnull %2, ptr noundef null) #34
  %19 = call i32 @sigaction(i32 noundef 4, ptr noundef nonnull %2, ptr noundef null) #34
  %20 = call i32 @sigaction(i32 noundef 7, ptr noundef nonnull %2, ptr noundef null) #34
  %21 = call i32 @sigaction(i32 noundef 8, ptr noundef nonnull %2, ptr noundef null) #34
  call void @llvm.lifetime.end.p0(i64 152, ptr nonnull %2) #34
  br label %31

22:                                               ; preds = %1
  %or.cond3 = select i1 %3, i1 %.b, i1 false
  br i1 %or.cond3, label %23, label %31

23:                                               ; preds = %22
  %24 = tail call i32 @sigaction(i32 noundef 6, ptr noundef nonnull @_ZZN5cmsys31SystemInformationImplementation20SetStackTraceOnErrorEiE10saABRTOrig, ptr noundef null) #34
  %25 = tail call i32 @sigaction(i32 noundef 11, ptr noundef nonnull @_ZZN5cmsys31SystemInformationImplementation20SetStackTraceOnErrorEiE10saSEGVOrig, ptr noundef null) #34
  %26 = tail call i32 @sigaction(i32 noundef 15, ptr noundef nonnull @_ZZN5cmsys31SystemInformationImplementation20SetStackTraceOnErrorEiE10saTERMOrig, ptr noundef null) #34
  %27 = tail call i32 @sigaction(i32 noundef 2, ptr noundef nonnull @_ZZN5cmsys31SystemInformationImplementation20SetStackTraceOnErrorEiE9saINTOrig, ptr noundef null) #34
  %28 = tail call i32 @sigaction(i32 noundef 4, ptr noundef nonnull @_ZZN5cmsys31SystemInformationImplementation20SetStackTraceOnErrorEiE9saILLOrig, ptr noundef null) #34
  %29 = tail call i32 @sigaction(i32 noundef 7, ptr noundef nonnull @_ZZN5cmsys31SystemInformationImplementation20SetStackTraceOnErrorEiE9saBUSOrig, ptr noundef null) #34
  %30 = tail call i32 @sigaction(i32 noundef 8, ptr noundef nonnull @_ZZN5cmsys31SystemInformationImplementation20SetStackTraceOnErrorEiE9saFPEOrig, ptr noundef null) #34
  store i1 false, ptr @_ZZN5cmsys31SystemInformationImplementation20SetStackTraceOnErrorEiE11saOrigValid, align 4
  br label %31

31:                                               ; preds = %22, %23, %4
  ret void
}